target datalayout = "e-m:e-p270:32:32-p271:32:32-p272:64:64-i64:64-f80:128-n8:16:32:64-S128"
target triple = "x86_64-pc-linux-gnu"

@.str = private unnamed_addr constant [5 x i8] c"%d%d\00", align 1
@.str.1 = private unnamed_addr constant [3 x i8] c"%d\00", align 1
@.str.2 = private unnamed_addr constant [2 x i8] c" \00", align 1
@.str.3 = private unnamed_addr constant [2 x i8] c"\0A\00", align 1

; Function Attrs: noinline nounwind uwtable
define dso_local i32 @main() #0 {
  %1 = alloca i32, align 4
  %2 = alloca [10 x [10 x i32]], align 16
  %3 = alloca [10 x [10 x i32]], align 16
  %4 = alloca i32, align 4
  %5 = alloca i32, align 4
  %6 = alloca i32, align 4
  %7 = alloca i32, align 4
  %8 = alloca i32, align 4
  %9 = alloca i32, align 4
  %10 = alloca i32, align 4
  store i32 0, i32* %1, align 4
  %11 = call i32 (i8*, ...) @__isoc99_scanf(i8* getelementptr inbounds ([5 x i8], [5 x i8]* @.str, i64 0, i64 0), i32* %7, i32* %8)
  store i32 1, i32* %4, align 4
  br label %12

12:                                               ; preds = %30, %0
  %13 = load i32, i32* %4, align 4
  %14 = icmp sle i32 %13, 9
  br i1 %14, label %15, label %33

15:                                               ; preds = %12
  store i32 1, i32* %5, align 4
  br label %16

16:                                               ; preds = %26, %15
  %17 = load i32, i32* %5, align 4
  %18 = icmp sle i32 %17, 9
  br i1 %18, label %19, label %29

19:                                               ; preds = %16
  %20 = load i32, i32* %4, align 4
  %21 = sext i32 %20 to i64
  %22 = getelementptr inbounds [10 x [10 x i32]], [10 x [10 x i32]]* %2, i64 0, i64 %21
  %23 = load i32, i32* %5, align 4
  %24 = sext i32 %23 to i64
  %25 = getelementptr inbounds [10 x i32], [10 x i32]* %22, i64 0, i64 %24
  store i32 0, i32* %25, align 4
  br label %26

26:                                               ; preds = %19
  %27 = load i32, i32* %5, align 4
  %28 = add nsw i32 %27, 1
  store i32 %28, i32* %5, align 4
  br label %16

29:                                               ; preds = %16
  br label %30

30:                                               ; preds = %29
  %31 = load i32, i32* %4, align 4
  %32 = add nsw i32 %31, 1
  store i32 %32, i32* %4, align 4
  br label %12

33:                                               ; preds = %12
  %34 = load i32, i32* %7, align 4
  %35 = getelementptr inbounds [10 x [10 x i32]], [10 x [10 x i32]]* %2, i64 0, i64 5
  %36 = getelementptr inbounds [10 x i32], [10 x i32]* %35, i64 0, i64 5
  store i32 %34, i32* %36, align 4
  store i32 1, i32* %4, align 4
  br label %37

37:                                               ; preds = %183, %33
  %38 = load i32, i32* %4, align 4
  %39 = load i32, i32* %8, align 4
  %40 = icmp sle i32 %38, %39
  br i1 %40, label %41, label %186

41:                                               ; preds = %37
  store i32 1, i32* %5, align 4
  br label %42

42:                                               ; preds = %60, %41
  %43 = load i32, i32* %5, align 4
  %44 = icmp sle i32 %43, 9
  br i1 %44, label %45, label %63

45:                                               ; preds = %42
  store i32 1, i32* %6, align 4
  br label %46

46:                                               ; preds = %56, %45
  %47 = load i32, i32* %6, align 4
  %48 = icmp sle i32 %47, 9
  br i1 %48, label %49, label %59

49:                                               ; preds = %46
  %50 = load i32, i32* %5, align 4
  %51 = sext i32 %50 to i64
  %52 = getelementptr inbounds [10 x [10 x i32]], [10 x [10 x i32]]* %3, i64 0, i64 %51
  %53 = load i32, i32* %6, align 4
  %54 = sext i32 %53 to i64
  %55 = getelementptr inbounds [10 x i32], [10 x i32]* %52, i64 0, i64 %54
  store i32 0, i32* %55, align 4
  br label %56

56:                                               ; preds = %49
  %57 = load i32, i32* %6, align 4
  %58 = add nsw i32 %57, 1
  store i32 %58, i32* %6, align 4
  br label %46

59:                                               ; preds = %46
  br label %60

60:                                               ; preds = %59
  %61 = load i32, i32* %5, align 4
  %62 = add nsw i32 %61, 1
  store i32 %62, i32* %5, align 4
  br label %42

63:                                               ; preds = %42
  store i32 1, i32* %5, align 4
  br label %64

64:                                               ; preds = %150, %63
  %65 = load i32, i32* %5, align 4
  %66 = icmp sle i32 %65, 9
  br i1 %66, label %67, label %153

67:                                               ; preds = %64
  store i32 1, i32* %6, align 4
  br label %68

68:                                               ; preds = %146, %67
  %69 = load i32, i32* %6, align 4
  %70 = icmp sle i32 %69, 9
  br i1 %70, label %71, label %149

71:                                               ; preds = %68
  %72 = load i32, i32* %5, align 4
  %73 = sext i32 %72 to i64
  %74 = getelementptr inbounds [10 x [10 x i32]], [10 x [10 x i32]]* %3, i64 0, i64 %73
  %75 = load i32, i32* %6, align 4
  %76 = sext i32 %75 to i64
  %77 = getelementptr inbounds [10 x i32], [10 x i32]* %74, i64 0, i64 %76
  %78 = load i32, i32* %77, align 4
  %79 = load i32, i32* %5, align 4
  %80 = sext i32 %79 to i64
  %81 = getelementptr inbounds [10 x [10 x i32]], [10 x [10 x i32]]* %2, i64 0, i64 %80
  %82 = load i32, i32* %6, align 4
  %83 = sext i32 %82 to i64
  %84 = getelementptr inbounds [10 x i32], [10 x i32]* %81, i64 0, i64 %83
  %85 = load i32, i32* %84, align 4
  %86 = mul nsw i32 2, %85
  %87 = add nsw i32 %78, %86
  %88 = load i32, i32* %5, align 4
  %89 = sext i32 %88 to i64
  %90 = getelementptr inbounds [10 x [10 x i32]], [10 x [10 x i32]]* %3, i64 0, i64 %89
  %91 = load i32, i32* %6, align 4
  %92 = sext i32 %91 to i64
  %93 = getelementptr inbounds [10 x i32], [10 x i32]* %90, i64 0, i64 %92
  store i32 %87, i32* %93, align 4
  store i32 -1, i32* %9, align 4
  br label %94

94:                                               ; preds = %142, %71
  %95 = load i32, i32* %9, align 4
  %96 = icmp sle i32 %95, 1
  br i1 %96, label %97, label %145

97:                                               ; preds = %94
  store i32 -1, i32* %10, align 4
  br label %98

98:                                               ; preds = %138, %97
  %99 = load i32, i32* %10, align 4
  %100 = icmp sle i32 %99, 1
  br i1 %100, label %101, label %141

101:                                              ; preds = %98
  %102 = load i32, i32* %9, align 4
  %103 = icmp ne i32 %102, 0
  br i1 %103, label %107, label %104

104:                                              ; preds = %101
  %105 = load i32, i32* %10, align 4
  %106 = icmp ne i32 %105, 0
  br i1 %106, label %107, label %137

107:                                              ; preds = %104, %101
  %108 = load i32, i32* %5, align 4
  %109 = load i32, i32* %9, align 4
  %110 = add nsw i32 %108, %109
  %111 = sext i32 %110 to i64
  %112 = getelementptr inbounds [10 x [10 x i32]], [10 x [10 x i32]]* %3, i64 0, i64 %111
  %113 = load i32, i32* %6, align 4
  %114 = load i32, i32* %10, align 4
  %115 = add nsw i32 %113, %114
  %116 = sext i32 %115 to i64
  %117 = getelementptr inbounds [10 x i32], [10 x i32]* %112, i64 0, i64 %116
  %118 = load i32, i32* %117, align 4
  %119 = load i32, i32* %5, align 4
  %120 = sext i32 %119 to i64
  %121 = getelementptr inbounds [10 x [10 x i32]], [10 x [10 x i32]]* %2, i64 0, i64 %120
  %122 = load i32, i32* %6, align 4
  %123 = sext i32 %122 to i64
  %124 = getelementptr inbounds [10 x i32], [10 x i32]* %121, i64 0, i64 %123
  %125 = load i32, i32* %124, align 4
  %126 = add nsw i32 %118, %125
  %127 = load i32, i32* %5, align 4
  %128 = load i32, i32* %9, align 4
  %129 = add nsw i32 %127, %128
  %130 = sext i32 %129 to i64
  %131 = getelementptr inbounds [10 x [10 x i32]], [10 x [10 x i32]]* %3, i64 0, i64 %130
  %132 = load i32, i32* %6, align 4
  %133 = load i32, i32* %10, align 4
  %134 = add nsw i32 %132, %133
  %135 = sext i32 %134 to i64
  %136 = getelementptr inbounds [10 x i32], [10 x i32]* %131, i64 0, i64 %135
  store i32 %126, i32* %136, align 4
  br label %137

137:                                              ; preds = %107, %104
  br label %138

138:                                              ; preds = %137
  %139 = load i32, i32* %10, align 4
  %140 = add nsw i32 %139, 1
  store i32 %140, i32* %10, align 4
  br label %98

141:                                              ; preds = %98
  br label %142

142:                                              ; preds = %141
  %143 = load i32, i32* %9, align 4
  %144 = add nsw i32 %143, 1
  store i32 %144, i32* %9, align 4
  br label %94

145:                                              ; preds = %94
  br label %146

146:                                              ; preds = %145
  %147 = load i32, i32* %6, align 4
  %148 = add nsw i32 %147, 1
  store i32 %148, i32* %6, align 4
  br label %68

149:                                              ; preds = %68
  br label %150

150:                                              ; preds = %149
  %151 = load i32, i32* %5, align 4
  %152 = add nsw i32 %151, 1
  store i32 %152, i32* %5, align 4
  br label %64

153:                                              ; preds = %64
  store i32 1, i32* %5, align 4
  br label %154

154:                                              ; preds = %179, %153
  %155 = load i32, i32* %5, align 4
  %156 = icmp sle i32 %155, 9
  br i1 %156, label %157, label %182

157:                                              ; preds = %154
  store i32 1, i32* %6, align 4
  br label %158

158:                                              ; preds = %175, %157
  %159 = load i32, i32* %6, align 4
  %160 = icmp sle i32 %159, 9
  br i1 %160, label %161, label %178

161:                                              ; preds = %158
  %162 = load i32, i32* %5, align 4
  %163 = sext i32 %162 to i64
  %164 = getelementptr inbounds [10 x [10 x i32]], [10 x [10 x i32]]* %3, i64 0, i64 %163
  %165 = load i32, i32* %6, align 4
  %166 = sext i32 %165 to i64
  %167 = getelementptr inbounds [10 x i32], [10 x i32]* %164, i64 0, i64 %166
  %168 = load i32, i32* %167, align 4
  %169 = load i32, i32* %5, align 4
  %170 = sext i32 %169 to i64
  %171 = getelementptr inbounds [10 x [10 x i32]], [10 x [10 x i32]]* %2, i64 0, i64 %170
  %172 = load i32, i32* %6, align 4
  %173 = sext i32 %172 to i64
  %174 = getelementptr inbounds [10 x i32], [10 x i32]* %171, i64 0, i64 %173
  store i32 %168, i32* %174, align 4
  br label %175

175:                                              ; preds = %161
  %176 = load i32, i32* %6, align 4
  %177 = add nsw i32 %176, 1
  store i32 %177, i32* %6, align 4
  br label %158

178:                                              ; preds = %158
  br label %179

179:                                              ; preds = %178
  %180 = load i32, i32* %5, align 4
  %181 = add nsw i32 %180, 1
  store i32 %181, i32* %5, align 4
  br label %154

182:                                              ; preds = %154
  br label %183

183:                                              ; preds = %182
  %184 = load i32, i32* %4, align 4
  %185 = add nsw i32 %184, 1
  store i32 %185, i32* %4, align 4
  br label %37

186:                                              ; preds = %37
  store i32 1, i32* %5, align 4
  br label %187

187:                                              ; preds = %213, %186
  %188 = load i32, i32* %5, align 4
  %189 = icmp sle i32 %188, 9
  br i1 %189, label %190, label %216

190:                                              ; preds = %187
  store i32 1, i32* %6, align 4
  br label %191

191:                                              ; preds = %208, %190
  %192 = load i32, i32* %6, align 4
  %193 = icmp sle i32 %192, 9
  br i1 %193, label %194, label %211

194:                                              ; preds = %191
  %195 = load i32, i32* %5, align 4
  %196 = sext i32 %195 to i64
  %197 = getelementptr inbounds [10 x [10 x i32]], [10 x [10 x i32]]* %2, i64 0, i64 %196
  %198 = load i32, i32* %6, align 4
  %199 = sext i32 %198 to i64
  %200 = getelementptr inbounds [10 x i32], [10 x i32]* %197, i64 0, i64 %199
  %201 = load i32, i32* %200, align 4
  %202 = call i32 (i8*, ...) @printf(i8* getelementptr inbounds ([3 x i8], [3 x i8]* @.str.1, i64 0, i64 0), i32 %201)
  %203 = load i32, i32* %6, align 4
  %204 = icmp slt i32 %203, 9
  br i1 %204, label %205, label %207

205:                                              ; preds = %194
  %206 = call i32 (i8*, ...) @printf(i8* getelementptr inbounds ([2 x i8], [2 x i8]* @.str.2, i64 0, i64 0))
  br label %207

207:                                              ; preds = %205, %194
  br label %208

208:                                              ; preds = %207
  %209 = load i32, i32* %6, align 4
  %210 = add nsw i32 %209, 1
  store i32 %210, i32* %6, align 4
  br label %191

211:                                              ; preds = %191
  %212 = call i32 (i8*, ...) @printf(i8* getelementptr inbounds ([2 x i8], [2 x i8]* @.str.3, i64 0, i64 0))
  br label %213

213:                                              ; preds = %211
  %214 = load i32, i32* %5, align 4
  %215 = add nsw i32 %214, 1
  store i32 %215, i32* %5, align 4
  br label %187

216:                                              ; preds = %187
  %217 = load i32, i32* %1, align 4
  ret i32 %217
}