; Function Attrs: nofree nounwind sspstrong uwtable
define dso_local i32 @main() local_unnamed_addr #0 {
  %1 = alloca [10 x [10 x i32]], align 16
  %2 = alloca [10 x [10 x i32]], align 16
  %3 = alloca i32, align 4
  %4 = alloca i32, align 4
  %5 = bitcast [10 x [10 x i32]]* %1 to i8*
  call void @llvm.lifetime.start.p0i8(i64 400, i8* nonnull %5) #6
  %6 = bitcast [10 x [10 x i32]]* %2 to i8*
  call void @llvm.lifetime.start.p0i8(i64 400, i8* nonnull %6) #6
  %7 = bitcast i32* %3 to i8*
  call void @llvm.lifetime.start.p0i8(i64 4, i8* nonnull %7) #6
  %8 = bitcast i32* %4 to i8*
  call void @llvm.lifetime.start.p0i8(i64 4, i8* nonnull %8) #6
  %9 = call i32 (i8*, ...) @__isoc99_scanf(i8* getelementptr inbounds ([5 x i8], [5 x i8]* @.str, i64 0, i64 0), i32* nonnull %3, i32* nonnull %4)
  %10 = getelementptr inbounds [10 x [10 x i32]], [10 x [10 x i32]]* %1, i64 0, i64 1, i64 1
  %11 = bitcast i32* %10 to i8*
  call void @llvm.memset.p0i8.i64(i8* noundef nonnull align 4 dereferenceable(36) %11, i8 0, i64 36, i1 false)
  %12 = getelementptr inbounds [10 x [10 x i32]], [10 x [10 x i32]]* %1, i64 0, i64 2, i64 1
  %13 = bitcast i32* %12 to i8*
  call void @llvm.memset.p0i8.i64(i8* noundef nonnull align 4 dereferenceable(36) %13, i8 0, i64 36, i1 false)
  %14 = getelementptr inbounds [10 x [10 x i32]], [10 x [10 x i32]]* %1, i64 0, i64 3, i64 1
  %15 = bitcast i32* %14 to i8*
  call void @llvm.memset.p0i8.i64(i8* noundef nonnull align 4 dereferenceable(36) %15, i8 0, i64 36, i1 false)
  %16 = getelementptr inbounds [10 x [10 x i32]], [10 x [10 x i32]]* %1, i64 0, i64 4, i64 1
  %17 = bitcast i32* %16 to i8*
  call void @llvm.memset.p0i8.i64(i8* noundef nonnull align 4 dereferenceable(36) %17, i8 0, i64 36, i1 false)
  %18 = getelementptr inbounds [10 x [10 x i32]], [10 x [10 x i32]]* %1, i64 0, i64 5, i64 1
  %19 = bitcast i32* %18 to i8*
  call void @llvm.memset.p0i8.i64(i8* noundef nonnull align 4 dereferenceable(36) %19, i8 0, i64 36, i1 false)
  %20 = getelementptr inbounds [10 x [10 x i32]], [10 x [10 x i32]]* %1, i64 0, i64 6, i64 1
  %21 = bitcast i32* %20 to i8*
  call void @llvm.memset.p0i8.i64(i8* noundef nonnull align 4 dereferenceable(36) %21, i8 0, i64 36, i1 false)
  %22 = getelementptr inbounds [10 x [10 x i32]], [10 x [10 x i32]]* %1, i64 0, i64 7, i64 1
  %23 = bitcast i32* %22 to i8*
  call void @llvm.memset.p0i8.i64(i8* noundef nonnull align 4 dereferenceable(36) %23, i8 0, i64 36, i1 false)
  %24 = getelementptr inbounds [10 x [10 x i32]], [10 x [10 x i32]]* %1, i64 0, i64 8, i64 1
  %25 = bitcast i32* %24 to i8*
  call void @llvm.memset.p0i8.i64(i8* noundef nonnull align 4 dereferenceable(36) %25, i8 0, i64 36, i1 false)
  %26 = getelementptr inbounds [10 x [10 x i32]], [10 x [10 x i32]]* %1, i64 0, i64 9, i64 1
  %27 = bitcast i32* %26 to i8*
  call void @llvm.memset.p0i8.i64(i8* noundef nonnull align 4 dereferenceable(36) %27, i8 0, i64 36, i1 false)
  %28 = load i32, i32* %3, align 4, !tbaa !5
  %29 = getelementptr inbounds [10 x [10 x i32]], [10 x [10 x i32]]* %1, i64 0, i64 5, i64 5
  store i32 %28, i32* %29, align 4, !tbaa !5
  %30 = load i32, i32* %4, align 4, !tbaa !5
  %31 = icmp slt i32 %30, 1
  br i1 %31, label %32, label %33

32:                                               ; preds = %60, %0
  br label %103

33:                                               ; preds = %0
  %34 = getelementptr inbounds [10 x [10 x i32]], [10 x [10 x i32]]* %2, i64 0, i64 1, i64 1
  %35 = bitcast i32* %34 to i8*
  %36 = getelementptr inbounds [10 x [10 x i32]], [10 x [10 x i32]]* %2, i64 0, i64 2, i64 1
  %37 = bitcast i32* %36 to i8*
  %38 = getelementptr inbounds [10 x [10 x i32]], [10 x [10 x i32]]* %2, i64 0, i64 3, i64 1
  %39 = bitcast i32* %38 to i8*
  %40 = getelementptr inbounds [10 x [10 x i32]], [10 x [10 x i32]]* %2, i64 0, i64 4, i64 1
  %41 = bitcast i32* %40 to i8*
  %42 = getelementptr inbounds [10 x [10 x i32]], [10 x [10 x i32]]* %2, i64 0, i64 5, i64 1
  %43 = bitcast i32* %42 to i8*
  %44 = getelementptr inbounds [10 x [10 x i32]], [10 x [10 x i32]]* %2, i64 0, i64 6, i64 1
  %45 = bitcast i32* %44 to i8*
  %46 = getelementptr inbounds [10 x [10 x i32]], [10 x [10 x i32]]* %2, i64 0, i64 7, i64 1
  %47 = bitcast i32* %46 to i8*
  %48 = getelementptr inbounds [10 x [10 x i32]], [10 x [10 x i32]]* %2, i64 0, i64 8, i64 1
  %49 = bitcast i32* %48 to i8*
  %50 = getelementptr inbounds [10 x [10 x i32]], [10 x [10 x i32]]* %2, i64 0, i64 9, i64 1
  %51 = bitcast i32* %50 to i8*
  br label %52

52:                                               ; preds = %33, %60
  %53 = phi i32 [ %61, %60 ], [ 1, %33 ]
  call void @llvm.memset.p0i8.i64(i8* noundef nonnull align 4 dereferenceable(36) %35, i8 0, i64 36, i1 false)
  call void @llvm.memset.p0i8.i64(i8* noundef nonnull align 4 dereferenceable(36) %37, i8 0, i64 36, i1 false)
  call void @llvm.memset.p0i8.i64(i8* noundef nonnull align 4 dereferenceable(36) %39, i8 0, i64 36, i1 false)
  call void @llvm.memset.p0i8.i64(i8* noundef nonnull align 4 dereferenceable(36) %41, i8 0, i64 36, i1 false)
  call void @llvm.memset.p0i8.i64(i8* noundef nonnull align 4 dereferenceable(36) %43, i8 0, i64 36, i1 false)
  call void @llvm.memset.p0i8.i64(i8* noundef nonnull align 4 dereferenceable(36) %45, i8 0, i64 36, i1 false)
  call void @llvm.memset.p0i8.i64(i8* noundef nonnull align 4 dereferenceable(36) %47, i8 0, i64 36, i1 false)
  call void @llvm.memset.p0i8.i64(i8* noundef nonnull align 4 dereferenceable(36) %49, i8 0, i64 36, i1 false)
  call void @llvm.memset.p0i8.i64(i8* noundef nonnull align 4 dereferenceable(36) %51, i8 0, i64 36, i1 false)
  br label %54

54:                                               ; preds = %52, %58
  %55 = phi i64 [ 1, %52 ], [ %57, %58 ]
  %56 = add nsw i64 %55, -1
  %57 = add nuw nsw i64 %55, 1
  br label %64

58:                                               ; preds = %64
  %59 = icmp eq i64 %57, 10
  br i1 %59, label %60, label %54, !llvm.loop !9

60:                                               ; preds = %58
  call void @llvm.memcpy.p0i8.p0i8.i64(i8* noundef nonnull align 4 dereferenceable(36) %11, i8* noundef nonnull align 4 dereferenceable(36) %35, i64 36, i1 false)
  call void @llvm.memcpy.p0i8.p0i8.i64(i8* noundef nonnull align 4 dereferenceable(36) %13, i8* noundef nonnull align 4 dereferenceable(36) %37, i64 36, i1 false)
  call void @llvm.memcpy.p0i8.p0i8.i64(i8* noundef nonnull align 4 dereferenceable(36) %15, i8* noundef nonnull align 4 dereferenceable(36) %39, i64 36, i1 false)
  call void @llvm.memcpy.p0i8.p0i8.i64(i8* noundef nonnull align 4 dereferenceable(36) %17, i8* noundef nonnull align 4 dereferenceable(36) %41, i64 36, i1 false)
  call void @llvm.memcpy.p0i8.p0i8.i64(i8* noundef nonnull align 4 dereferenceable(36) %19, i8* noundef nonnull align 4 dereferenceable(36) %43, i64 36, i1 false)
  call void @llvm.memcpy.p0i8.p0i8.i64(i8* noundef nonnull align 4 dereferenceable(36) %21, i8* noundef nonnull align 4 dereferenceable(36) %45, i64 36, i1 false)
  call void @llvm.memcpy.p0i8.p0i8.i64(i8* noundef nonnull align 4 dereferenceable(36) %23, i8* noundef nonnull align 4 dereferenceable(36) %47, i64 36, i1 false)
  call void @llvm.memcpy.p0i8.p0i8.i64(i8* noundef nonnull align 4 dereferenceable(36) %25, i8* noundef nonnull align 4 dereferenceable(36) %49, i64 36, i1 false)
  call void @llvm.memcpy.p0i8.p0i8.i64(i8* noundef nonnull align 4 dereferenceable(36) %27, i8* noundef nonnull align 4 dereferenceable(36) %51, i64 36, i1 false)
  %61 = add nuw i32 %53, 1
  %62 = icmp eq i32 %53, %30
  br i1 %62, label %32, label %52, !llvm.loop !11

63:                                               ; preds = %103
  call void @llvm.lifetime.end.p0i8(i64 4, i8* nonnull %8) #6
  call void @llvm.lifetime.end.p0i8(i64 4, i8* nonnull %7) #6
  call void @llvm.lifetime.end.p0i8(i64 400, i8* nonnull %6) #6
  call void @llvm.lifetime.end.p0i8(i64 400, i8* nonnull %5) #6
  ret i32 0

64:                                               ; preds = %54, %64
  %65 = phi i64 [ 1, %54 ], [ %98, %64 ]
  %66 = getelementptr inbounds [10 x [10 x i32]], [10 x [10 x i32]]* %2, i64 0, i64 %55, i64 %65
  %67 = load i32, i32* %66, align 4, !tbaa !5
  %68 = getelementptr inbounds [10 x [10 x i32]], [10 x [10 x i32]]* %1, i64 0, i64 %55, i64 %65
  %69 = load i32, i32* %68, align 4, !tbaa !5
  %70 = shl nsw i32 %69, 1
  %71 = add nsw i32 %70, %67
  store i32 %71, i32* %66, align 4, !tbaa !5
  %72 = add nsw i64 %65, -1
  %73 = getelementptr inbounds [10 x [10 x i32]], [10 x [10 x i32]]* %2, i64 0, i64 %56, i64 %72
  %74 = load i32, i32* %73, align 4, !tbaa !5
  %75 = add nsw i32 %74, %69
  store i32 %75, i32* %73, align 4, !tbaa !5
  %76 = getelementptr inbounds [10 x [10 x i32]], [10 x [10 x i32]]* %2, i64 0, i64 %56, i64 %65
  %77 = load i32, i32* %76, align 4, !tbaa !5
  %78 = add nsw i32 %77, %69
  store i32 %78, i32* %76, align 4, !tbaa !5
  %79 = add nuw nsw i64 %65, 1
  %80 = getelementptr inbounds [10 x [10 x i32]], [10 x [10 x i32]]* %2, i64 0, i64 %56, i64 %79
  %81 = load i32, i32* %80, align 4, !tbaa !5
  %82 = add nsw i32 %81, %69
  store i32 %82, i32* %80, align 4, !tbaa !5
  %83 = add nsw i64 %65, -1
  %84 = getelementptr inbounds [10 x [10 x i32]], [10 x [10 x i32]]* %2, i64 0, i64 %55, i64 %83
  %85 = load i32, i32* %84, align 4, !tbaa !5
  %86 = add nsw i32 %85, %69
  store i32 %86, i32* %84, align 4, !tbaa !5
  %87 = add nuw nsw i64 %65, 1
  %88 = getelementptr inbounds [10 x [10 x i32]], [10 x [10 x i32]]* %2, i64 0, i64 %55, i64 %87
  %89 = load i32, i32* %88, align 4, !tbaa !5
  %90 = add nsw i32 %89, %69
  store i32 %90, i32* %88, align 4, !tbaa !5
  %91 = add nsw i64 %65, -1
  %92 = getelementptr inbounds [10 x [10 x i32]], [10 x [10 x i32]]* %2, i64 0, i64 %57, i64 %91
  %93 = load i32, i32* %92, align 4, !tbaa !5
  %94 = add nsw i32 %93, %69
  store i32 %94, i32* %92, align 4, !tbaa !5
  %95 = getelementptr inbounds [10 x [10 x i32]], [10 x [10 x i32]]* %2, i64 0, i64 %57, i64 %65
  %96 = load i32, i32* %95, align 4, !tbaa !5
  %97 = add nsw i32 %96, %69
  store i32 %97, i32* %95, align 4, !tbaa !5
  %98 = add nuw nsw i64 %65, 1
  %99 = getelementptr inbounds [10 x [10 x i32]], [10 x [10 x i32]]* %2, i64 0, i64 %57, i64 %98
  %100 = load i32, i32* %99, align 4, !tbaa !5
  %101 = add nsw i32 %100, %69
  store i32 %101, i32* %99, align 4, !tbaa !5
  %102 = icmp eq i64 %98, 10
  br i1 %102, label %58, label %64, !llvm.loop !12

103:                                              ; preds = %32, %103
  %104 = phi i64 [ %141, %103 ], [ 1, %32 ]
  %105 = getelementptr inbounds [10 x [10 x i32]], [10 x [10 x i32]]* %1, i64 0, i64 %104, i64 1
  %106 = load i32, i32* %105, align 4, !tbaa !5
  %107 = call i32 (i8*, ...) @printf(i8* nonnull dereferenceable(1) getelementptr inbounds ([3 x i8], [3 x i8]* @.str.1, i64 0, i64 0), i32 %106)
  %108 = call i32 @putchar(i32 32)
  %109 = getelementptr inbounds [10 x [10 x i32]], [10 x [10 x i32]]* %1, i64 0, i64 %104, i64 2
  %110 = load i32, i32* %109, align 8, !tbaa !5
  %111 = call i32 (i8*, ...) @printf(i8* nonnull dereferenceable(1) getelementptr inbounds ([3 x i8], [3 x i8]* @.str.1, i64 0, i64 0), i32 %110)
  %112 = call i32 @putchar(i32 32)
  %113 = getelementptr inbounds [10 x [10 x i32]], [10 x [10 x i32]]* %1, i64 0, i64 %104, i64 3
  %114 = load i32, i32* %113, align 4, !tbaa !5
  %115 = call i32 (i8*, ...) @printf(i8* nonnull dereferenceable(1) getelementptr inbounds ([3 x i8], [3 x i8]* @.str.1, i64 0, i64 0), i32 %114)
  %116 = call i32 @putchar(i32 32)
  %117 = getelementptr inbounds [10 x [10 x i32]], [10 x [10 x i32]]* %1, i64 0, i64 %104, i64 4
  %118 = load i32, i32* %117, align 8, !tbaa !5
  %119 = call i32 (i8*, ...) @printf(i8* nonnull dereferenceable(1) getelementptr inbounds ([3 x i8], [3 x i8]* @.str.1, i64 0, i64 0), i32 %118)
  %120 = call i32 @putchar(i32 32)
  %121 = getelementptr inbounds [10 x [10 x i32]], [10 x [10 x i32]]* %1, i64 0, i64 %104, i64 5
  %122 = load i32, i32* %121, align 4, !tbaa !5
  %123 = call i32 (i8*, ...) @printf(i8* nonnull dereferenceable(1) getelementptr inbounds ([3 x i8], [3 x i8]* @.str.1, i64 0, i64 0), i32 %122)
  %124 = call i32 @putchar(i32 32)
  %125 = getelementptr inbounds [10 x [10 x i32]], [10 x [10 x i32]]* %1, i64 0, i64 %104, i64 6
  %126 = load i32, i32* %125, align 8, !tbaa !5
  %127 = call i32 (i8*, ...) @printf(i8* nonnull dereferenceable(1) getelementptr inbounds ([3 x i8], [3 x i8]* @.str.1, i64 0, i64 0), i32 %126)
  %128 = call i32 @putchar(i32 32)
  %129 = getelementptr inbounds [10 x [10 x i32]], [10 x [10 x i32]]* %1, i64 0, i64 %104, i64 7
  %130 = load i32, i32* %129, align 4, !tbaa !5
  %131 = call i32 (i8*, ...) @printf(i8* nonnull dereferenceable(1) getelementptr inbounds ([3 x i8], [3 x i8]* @.str.1, i64 0, i64 0), i32 %130)
  %132 = call i32 @putchar(i32 32)
  %133 = getelementptr inbounds [10 x [10 x i32]], [10 x [10 x i32]]* %1, i64 0, i64 %104, i64 8
  %134 = load i32, i32* %133, align 8, !tbaa !5
  %135 = call i32 (i8*, ...) @printf(i8* nonnull dereferenceable(1) getelementptr inbounds ([3 x i8], [3 x i8]* @.str.1, i64 0, i64 0), i32 %134)
  %136 = call i32 @putchar(i32 32)
  %137 = getelementptr inbounds [10 x [10 x i32]], [10 x [10 x i32]]* %1, i64 0, i64 %104, i64 9
  %138 = load i32, i32* %137, align 4, !tbaa !5
  %139 = call i32 (i8*, ...) @printf(i8* nonnull dereferenceable(1) getelementptr inbounds ([3 x i8], [3 x i8]* @.str.1, i64 0, i64 0), i32 %138)
  %140 = call i32 @putchar(i32 10)
  %141 = add nuw nsw i64 %104, 1
  %142 = icmp eq i64 %141, 10
  br i1 %142, label %63, label %103, !llvm.loop !13
}